target datalayout = "e-m:e-p270:32:32-p271:32:32-p272:64:64-i64:64-i128:128-f80:128-n8:16:32:64-S128"
target triple = "x86_64-pc-linux-gnu"

%"class.lean::object_ref" = type { ptr }
%"struct.std::__detail::_Hash_node_base" = type { ptr }
%"struct.std::__detail::_Prime_rehash_policy" = type { float, i64 }
%"class.lean::local_ctx" = type { %"class.lean::object_ref" }
%"class.lean::environment" = type { %"class.lean::object_ref" }
%"class.lean::name" = type { %"class.lean::object_ref" }
%"class.lean::type_checker::state" = type { %"class.lean::environment", %"class.lean::name_generator", [2 x %"class.std::unordered_map.6"], %"class.std::unordered_map.6", %"class.std::unordered_map.6", %"class.lean::equiv_manager", %"class.std::unordered_set" }
%"class.lean::name_generator" = type <{ %"class.lean::name", i32, [4 x i8] }>
%"class.std::unordered_map.6" = type { %"class.std::_Hashtable.7" }
%"class.std::_Hashtable.7" = type { ptr, i64, %"struct.std::__detail::_Hash_node_base", i64, %"struct.std::__detail::_Prime_rehash_policy", ptr }
%"class.lean::equiv_manager" = type <{ %"class.std::vector", %"class.std::unordered_map.18", i8, [7 x i8] }>
%"class.std::vector" = type { %"struct.std::_Vector_base" }
%"struct.std::_Vector_base" = type { %"struct.std::_Vector_base<lean::equiv_manager::node, std::allocator<lean::equiv_manager::node>>::_Vector_impl" }
%"struct.std::_Vector_base<lean::equiv_manager::node, std::allocator<lean::equiv_manager::node>>::_Vector_impl" = type { %"struct.std::_Vector_base<lean::equiv_manager::node, std::allocator<lean::equiv_manager::node>>::_Vector_impl_data" }
%"struct.std::_Vector_base<lean::equiv_manager::node, std::allocator<lean::equiv_manager::node>>::_Vector_impl_data" = type { ptr, ptr, ptr }
%"class.std::unordered_map.18" = type { %"class.std::_Hashtable.19" }
%"class.std::_Hashtable.19" = type { ptr, i64, %"struct.std::__detail::_Hash_node_base", i64, %"struct.std::__detail::_Prime_rehash_policy", ptr }
%"class.std::unordered_set" = type { %"class.std::_Hashtable.32" }
%"class.std::_Hashtable.32" = type { ptr, i64, %"struct.std::__detail::_Hash_node_base", i64, %"struct.std::__detail::_Prime_rehash_policy", ptr }

; Function Attrs: mustprogress uwtable
define hidden noundef zeroext i1 @_ZN4lean18is_irrelevant_typeERKNS_11environmentERKNS_4exprE(ptr noundef nonnull align 8 dereferenceable(8) %0, ptr noundef nonnull align 8 dereferenceable(8) %1) #0 personality ptr @__gxx_personality_v0 {
  %3 = alloca ptr, align 8
  %4 = alloca ptr, align 8
  %5 = alloca %"class.lean::type_checker::state", align 8
  %6 = alloca %"class.lean::local_ctx", align 8
  %7 = alloca ptr, align 8
  %8 = alloca i32, align 4
  store ptr %0, ptr %3, align 8, !tbaa !3
  store ptr %1, ptr %4, align 8, !tbaa !34
  call void @llvm.lifetime.start.p0(i64 392, ptr %5) #19
  %9 = load ptr, ptr %3, align 8, !tbaa !3
  call void @_ZN4lean12type_checker5stateC1ERKNS_11environmentE(ptr noundef nonnull align 8 dereferenceable(392) %5, ptr noundef nonnull align 8 dereferenceable(8) %9)
  invoke void @_ZN4lean9local_ctxC1Ev(ptr noundef nonnull align 8 dereferenceable(8) %6)
          to label %10 unwind label %14

10:                                               ; preds = %2
  %11 = load ptr, ptr %4, align 8, !tbaa !34
  %12 = invoke noundef zeroext i1 @_ZN4lean18is_irrelevant_typeERNS_12type_checker5stateENS_9local_ctxERKNS_4exprE(ptr noundef nonnull align 8 dereferenceable(392) %5, ptr noundef %6, ptr noundef nonnull align 8 dereferenceable(8) %11)
          to label %13 unwind label %18

13:                                               ; preds = %10
  call void @_ZN4lean10object_refD2Ev(ptr noundef nonnull align 8 dereferenceable(8) %6) #19
  call void @_ZN4lean12type_checker5stateD2Ev(ptr noundef nonnull align 8 dereferenceable(392) %5) #19
  call void @llvm.lifetime.end.p0(i64 392, ptr %5) #19
  ret i1 %12

14:                                               ; preds = %2
  %15 = landingpad { ptr, i32 }
          cleanup
  %16 = extractvalue { ptr, i32 } %15, 0
  store ptr %16, ptr %7, align 8
  %17 = extractvalue { ptr, i32 } %15, 1
  store i32 %17, ptr %8, align 4
  br label %22

18:                                               ; preds = %10
  %19 = landingpad { ptr, i32 }
          cleanup
  %20 = extractvalue { ptr, i32 } %19, 0
  store ptr %20, ptr %7, align 8
  %21 = extractvalue { ptr, i32 } %19, 1
  store i32 %21, ptr %8, align 4
  call void @_ZN4lean10object_refD2Ev(ptr noundef nonnull align 8 dereferenceable(8) %6) #19
  br label %22

22:                                               ; preds = %18, %14
  call void @_ZN4lean12type_checker5stateD2Ev(ptr noundef nonnull align 8 dereferenceable(392) %5) #19
  call void @llvm.lifetime.end.p0(i64 392, ptr %5) #19
  br label %23

23:                                               ; preds = %22
  %24 = load ptr, ptr %7, align 8
  %25 = load i32, ptr %8, align 4
  %26 = insertvalue { ptr, i32 } poison, ptr %24, 0
  %27 = insertvalue { ptr, i32 } %26, i32 %25, 1
  resume { ptr, i32 } %27
}