; Function Attrs: mustprogress uwtable
define hidden noundef zeroext i1 @_ZN4lean18is_irrelevant_typeERKNS_11environmentERKNS_4exprE(ptr noundef nonnull align 8 dereferenceable(8) %0, ptr noundef nonnull align 8 dereferenceable(8) %1) local_unnamed_addr #0 personality ptr @__gxx_personality_v0 {
  %3 = alloca %"class.lean::type_checker::state", align 8
  %4 = alloca %"class.lean::local_ctx", align 8
  call void @llvm.lifetime.start.p0(i64 392, ptr nonnull %3) #25
  call void @_ZN4lean12type_checker5stateC1ERKNS_11environmentE(ptr noundef nonnull align 8 dereferenceable(392) %3, ptr noundef nonnull align 8 dereferenceable(8) %0)
  invoke void @_ZN4lean9local_ctxC1Ev(ptr noundef nonnull align 8 dereferenceable(8) %4)
          to label %5 unwind label %21

5:                                                ; preds = %2
  %6 = invoke noundef zeroext i1 @_ZN4lean18is_irrelevant_typeERNS_12type_checker5stateENS_9local_ctxERKNS_4exprE(ptr noundef nonnull align 8 dereferenceable(392) %3, ptr noundef nonnull %4, ptr noundef nonnull align 8 dereferenceable(8) %1)
          to label %7 unwind label %23

7:                                                ; preds = %5
  %8 = load ptr, ptr %4, align 8, !tbaa !3
  %9 = ptrtoint ptr %8 to i64
  %10 = and i64 %9, 1
  %.not.i.i = icmp eq i64 %10, 0
  br i1 %.not.i.i, label %11, label %_ZN4lean10object_refD2Ev.exit

11:                                               ; preds = %7
  %12 = load i32, ptr %8, align 4, !tbaa !13
  %13 = icmp sgt i32 %12, 1
  br i1 %13, label %14, label %16, !prof !15

14:                                               ; preds = %11
  %15 = add nsw i32 %12, -1
  store i32 %15, ptr %8, align 4, !tbaa !13
  br label %_ZN4lean10object_refD2Ev.exit

16:                                               ; preds = %11
  %.not.i.i.i = icmp eq i32 %12, 0
  br i1 %.not.i.i.i, label %_ZN4lean10object_refD2Ev.exit, label %17

17:                                               ; preds = %16
  invoke void @lean_dec_ref_cold(ptr noundef nonnull %8)
          to label %_ZN4lean10object_refD2Ev.exit unwind label %18

18:                                               ; preds = %17
  %19 = landingpad { ptr, i32 }
          catch ptr null
  %20 = extractvalue { ptr, i32 } %19, 0
  call void @__clang_call_terminate(ptr %20) #26
  unreachable

_ZN4lean10object_refD2Ev.exit:                    ; preds = %7, %14, %16, %17
  call void @_ZN4lean12type_checker5stateD2Ev(ptr noundef nonnull align 8 dereferenceable(392) %3) #25
  call void @llvm.lifetime.end.p0(i64 392, ptr nonnull %3) #25
  ret i1 %6

21:                                               ; preds = %2
  %22 = landingpad { ptr, i32 }
          cleanup
  br label %25

23:                                               ; preds = %5
  %24 = landingpad { ptr, i32 }
          cleanup
  call void @_ZN4lean10object_refD2Ev(ptr noundef nonnull align 8 dereferenceable(8) %4) #25
  br label %25

25:                                               ; preds = %23, %21
  %.pn = phi { ptr, i32 } [ %24, %23 ], [ %22, %21 ]
  call void @_ZN4lean12type_checker5stateD2Ev(ptr noundef nonnull align 8 dereferenceable(392) %3) #25
  call void @llvm.lifetime.end.p0(i64 392, ptr nonnull %3) #25
  resume { ptr, i32 } %.pn
}